target datalayout = "e-m:e-p270:32:32-p271:32:32-p272:64:64-i64:64-i128:128-f80:128-n8:16:32:64-S128"
target triple = "x86_64-pc-linux-gnu"

%struct.cinfo_tag = type { i32, i32, i32, i32, i32, i32, i32, i32, i32, i32, i32, i32, i32, i32, i32, i32, i32, i64, i64, i64 }
%struct.cube = type { i8, i8, i16, i16, i16, ptr, ptr, ptr, ptr }

@g_CoverInfo = external global %struct.cinfo_tag, align 8
@.str = private unnamed_addr constant [83 x i8] c"Warning! The recorded number of literals (%d) differs from the actual number (%d)\0A\00", align 1

; Function Attrs: nounwind uwtable
define i32 @CountLiteralsCheck() #0 {
  %1 = alloca ptr, align 8
  %2 = alloca i32, align 4
  %3 = alloca i32, align 4
  %4 = alloca i32, align 4
  %5 = alloca i32, align 4
  call void @llvm.lifetime.start.p0(i64 8, ptr %1) #5
  call void @llvm.lifetime.start.p0(i64 4, ptr %2) #5
  call void @llvm.lifetime.start.p0(i64 4, ptr %3) #5
  call void @llvm.lifetime.start.p0(i64 4, ptr %4) #5
  store i32 0, ptr %4, align 4, !tbaa !3
  call void @llvm.lifetime.start.p0(i64 4, ptr %5) #5
  store i32 0, ptr %5, align 4, !tbaa !3
  %6 = call ptr (...) @IterCubeSetStart()
  store ptr %6, ptr %1, align 8, !tbaa !7
  br label %7

7:                                                ; preds = %47, %0
  %8 = load ptr, ptr %1, align 8, !tbaa !7
  %9 = icmp ne ptr %8, null
  br i1 %9, label %10, label %49

10:                                               ; preds = %7
  %11 = load ptr, ptr %1, align 8, !tbaa !7
  %12 = getelementptr inbounds nuw %struct.cube, ptr %11, i32 0, i32 2
  %13 = load i16, ptr %12, align 2, !tbaa !10
  %14 = sext i16 %13 to i32
  %15 = load i32, ptr %5, align 4, !tbaa !3
  %16 = add nsw i32 %15, %14
  store i32 %16, ptr %5, align 4, !tbaa !3
  store i32 0, ptr %3, align 4, !tbaa !3
  br label %17

17:                                               ; preds = %43, %10
  %18 = load i32, ptr %3, align 4, !tbaa !3
  %19 = load i32, ptr @g_CoverInfo, align 8, !tbaa !16
  %20 = icmp slt i32 %18, %19
  br i1 %20, label %21, label %46

21:                                               ; preds = %17
  %22 = load ptr, ptr %1, align 8, !tbaa !7
  %23 = load i32, ptr %3, align 4, !tbaa !3
  %24 = call i32 @GetVar(ptr noundef %22, i32 noundef %23)
  store i32 %24, ptr %2, align 4, !tbaa !3
  %25 = load i32, ptr %2, align 4, !tbaa !3
  %26 = icmp eq i32 %25, 1
  br i1 %26, label %27, label %30

27:                                               ; preds = %21
  %28 = load i32, ptr %4, align 4, !tbaa !3
  %29 = add nsw i32 %28, 1
  store i32 %29, ptr %4, align 4, !tbaa !3
  br label %42

30:                                               ; preds = %21
  %31 = load i32, ptr %2, align 4, !tbaa !3
  %32 = icmp eq i32 %31, 2
  br i1 %32, label %33, label %36

33:                                               ; preds = %30
  %34 = load i32, ptr %4, align 4, !tbaa !3
  %35 = add nsw i32 %34, 1
  store i32 %35, ptr %4, align 4, !tbaa !3
  br label %41

36:                                               ; preds = %30
  %37 = load i32, ptr %2, align 4, !tbaa !3
  %38 = icmp ne i32 %37, 3
  br i1 %38, label %39, label %40

39:                                               ; preds = %36
  br label %40

40:                                               ; preds = %39, %36
  br label %41

41:                                               ; preds = %40, %33
  br label %42

42:                                               ; preds = %41, %27
  br label %43

43:                                               ; preds = %42
  %44 = load i32, ptr %3, align 4, !tbaa !3
  %45 = add nsw i32 %44, 1
  store i32 %45, ptr %3, align 4, !tbaa !3
  br label %17, !llvm.loop !19

46:                                               ; preds = %17
  br label %47

47:                                               ; preds = %46
  %48 = call ptr (...) @IterCubeSetNext()
  store ptr %48, ptr %1, align 8, !tbaa !7
  br label %7, !llvm.loop !20

49:                                               ; preds = %7
  %50 = load i32, ptr %5, align 4, !tbaa !3
  %51 = load i32, ptr %4, align 4, !tbaa !3
  %52 = icmp ne i32 %50, %51
  br i1 %52, label %53, label %57

53:                                               ; preds = %49
  %54 = load i32, ptr %5, align 4, !tbaa !3
  %55 = load i32, ptr %4, align 4, !tbaa !3
  %56 = call i32 (ptr, ...) @printf(ptr noundef @.str, i32 noundef %54, i32 noundef %55)
  br label %57

57:                                               ; preds = %53, %49
  %58 = load i32, ptr %4, align 4, !tbaa !3
  call void @llvm.lifetime.end.p0(i64 4, ptr %5) #5
  call void @llvm.lifetime.end.p0(i64 4, ptr %4) #5
  call void @llvm.lifetime.end.p0(i64 4, ptr %3) #5
  call void @llvm.lifetime.end.p0(i64 4, ptr %2) #5
  call void @llvm.lifetime.end.p0(i64 8, ptr %1) #5
  ret i32 %58
}