; Function Attrs: nounwind uwtable
define i32 @CountLiteralsCheck() local_unnamed_addr #0 {
  %1 = tail call ptr (...) @IterCubeSetStart() #6
  %.not23 = icmp eq ptr %1, null
  br i1 %.not23, label %._crit_edge29.thread, label %.lr.ph28

.lr.ph28:                                         ; preds = %0, %._crit_edge
  %.026 = phi i32 [ %5, %._crit_edge ], [ 0, %0 ]
  %.01625 = phi i32 [ %.1.lcssa, %._crit_edge ], [ 0, %0 ]
  %.01824 = phi ptr [ %17, %._crit_edge ], [ %1, %0 ]
  %2 = getelementptr inbounds nuw i8, ptr %.01824, i64 2
  %3 = load i16, ptr %2, align 2, !tbaa !3
  %4 = sext i16 %3 to i32
  %5 = add nsw i32 %.026, %4
  %6 = load i32, ptr @g_CoverInfo, align 8, !tbaa !13
  %7 = icmp sgt i32 %6, 0
  br i1 %7, label %.lr.ph, label %._crit_edge

.lr.ph:                                           ; preds = %.lr.ph28, %13
  %.122 = phi i32 [ %.2, %13 ], [ %.01625, %.lr.ph28 ]
  %.01721 = phi i32 [ %14, %13 ], [ 0, %.lr.ph28 ]
  %8 = tail call i32 @GetVar(ptr noundef nonnull %.01824, i32 noundef %.01721) #6
  switch i32 %8, label %13 [
    i32 1, label %9
    i32 2, label %11
  ]

9:                                                ; preds = %.lr.ph
  %10 = add nsw i32 %.122, 1
  br label %13

11:                                               ; preds = %.lr.ph
  %12 = add nsw i32 %.122, 1
  br label %13

13:                                               ; preds = %.lr.ph, %9, %11
  %.2 = phi i32 [ %10, %9 ], [ %12, %11 ], [ %.122, %.lr.ph ]
  %14 = add nuw nsw i32 %.01721, 1
  %15 = load i32, ptr @g_CoverInfo, align 8, !tbaa !13
  %16 = icmp slt i32 %14, %15
  br i1 %16, label %.lr.ph, label %._crit_edge, !llvm.loop !17

._crit_edge:                                      ; preds = %13, %.lr.ph28
  %.1.lcssa = phi i32 [ %.01625, %.lr.ph28 ], [ %.2, %13 ]
  %17 = tail call ptr (...) @IterCubeSetNext() #6
  %.not = icmp eq ptr %17, null
  br i1 %.not, label %._crit_edge29, label %.lr.ph28, !llvm.loop !18

._crit_edge29:                                    ; preds = %._crit_edge
  %.not20 = icmp eq i32 %5, %.1.lcssa
  br i1 %.not20, label %._crit_edge29.thread, label %18

18:                                               ; preds = %._crit_edge29
  %19 = tail call i32 (ptr, ...) @printf(ptr noundef nonnull dereferenceable(1) @.str, i32 noundef %5, i32 noundef %.1.lcssa)
  br label %._crit_edge29.thread

._crit_edge29.thread:                             ; preds = %0, %18, %._crit_edge29
  %.016.lcssa35 = phi i32 [ %.1.lcssa, %18 ], [ %.1.lcssa, %._crit_edge29 ], [ 0, %0 ]
  ret i32 %.016.lcssa35
}